target datalayout = "e-m:e-p270:32:32-p271:32:32-p272:64:64-i64:64-i128:128-f80:128-n8:16:32:64-S128"
target triple = "x86_64-pc-linux-gnu"

; Function Attrs: nounwind uwtable
define i32 @Kit_TruthWordNum_64bit(i32 noundef %0) #0 {
  %2 = alloca i32, align 4
  store i32 %0, ptr %2, align 4, !tbaa !3
  %3 = load i32, ptr %2, align 4, !tbaa !3
  %4 = icmp sle i32 %3, 6
  br i1 %4, label %5, label %6

5:                                                ; preds = %1
  br label %10

6:                                                ; preds = %1
  %7 = load i32, ptr %2, align 4, !tbaa !3
  %8 = sub nsw i32 %7, 6
  %9 = shl i32 1, %8
  br label %10

10:                                               ; preds = %6, %5
  %11 = phi i32 [ 1, %5 ], [ %9, %6 ]
  ret i32 %11
}

; Function Attrs: nounwind uwtable
define void @Kit_TruthSwapAdjacentVars_64bit(ptr noundef %0, i32 noundef %1, i32 noundef %2) #0 {
  %4 = alloca ptr, align 8
  %5 = alloca i32, align 4
  %6 = alloca i32, align 4
  %7 = alloca i32, align 4
  %8 = alloca i32, align 4
  %9 = alloca i32, align 4
  %10 = alloca i32, align 4
  %11 = alloca [256 x i64], align 16
  %12 = alloca i32, align 4
  store ptr %0, ptr %4, align 8, !tbaa !9
  store i32 %1, ptr %5, align 4, !tbaa !3
  store i32 %2, ptr %6, align 4, !tbaa !3
  call void @llvm.lifetime.start.p0(i64 4, ptr %7) #4
  call void @llvm.lifetime.start.p0(i64 4, ptr %8) #4
  call void @llvm.lifetime.start.p0(i64 4, ptr %9) #4
  call void @llvm.lifetime.start.p0(i64 4, ptr %10) #4
  call void @llvm.lifetime.start.p0(i64 2048, ptr %11) #4
  call void @llvm.lifetime.start.p0(i64 4, ptr %12) #4
  %13 = load i32, ptr %5, align 4, !tbaa !3
  %14 = call i32 @Kit_TruthWordNum_64bit(i32 noundef %13)
  store i32 %14, ptr %12, align 4, !tbaa !3
  %15 = load i32, ptr %6, align 4, !tbaa !3
  %16 = icmp slt i32 %15, 5
  br i1 %16, label %17, label %74

17:                                               ; preds = %3
  %18 = load i32, ptr %6, align 4, !tbaa !3
  %19 = shl i32 1, %18
  store i32 %19, ptr %9, align 4, !tbaa !3
  store i32 0, ptr %7, align 4, !tbaa !3
  br label %20

20:                                               ; preds = %70, %17
  %21 = load i32, ptr %7, align 4, !tbaa !3
  %22 = load i32, ptr %12, align 4, !tbaa !3
  %23 = icmp slt i32 %21, %22
  br i1 %23, label %24, label %73

24:                                               ; preds = %20
  %25 = load ptr, ptr %4, align 8, !tbaa !9
  %26 = load i32, ptr %7, align 4, !tbaa !3
  %27 = sext i32 %26 to i64
  %28 = getelementptr inbounds i64, ptr %25, i64 %27
  %29 = load i64, ptr %28, align 8, !tbaa !7
  %30 = load i32, ptr %6, align 4, !tbaa !3
  %31 = sext i32 %30 to i64
  %32 = getelementptr inbounds [5 x [3 x i64]], ptr @Kit_TruthSwapAdjacentVars_64bit.PMasks, i64 0, i64 %31
  %33 = getelementptr inbounds [3 x i64], ptr %32, i64 0, i64 0
  %34 = load i64, ptr %33, align 8, !tbaa !7
  %35 = and i64 %29, %34
  %36 = load ptr, ptr %4, align 8, !tbaa !9
  %37 = load i32, ptr %7, align 4, !tbaa !3
  %38 = sext i32 %37 to i64
  %39 = getelementptr inbounds i64, ptr %36, i64 %38
  %40 = load i64, ptr %39, align 8, !tbaa !7
  %41 = load i32, ptr %6, align 4, !tbaa !3
  %42 = sext i32 %41 to i64
  %43 = getelementptr inbounds [5 x [3 x i64]], ptr @Kit_TruthSwapAdjacentVars_64bit.PMasks, i64 0, i64 %42
  %44 = getelementptr inbounds [3 x i64], ptr %43, i64 0, i64 1
  %45 = load i64, ptr %44, align 8, !tbaa !7
  %46 = and i64 %40, %45
  %47 = load i32, ptr %9, align 4, !tbaa !3
  %48 = zext i32 %47 to i64
  %49 = shl i64 %46, %48
  %50 = or i64 %35, %49
  %51 = load ptr, ptr %4, align 8, !tbaa !9
  %52 = load i32, ptr %7, align 4, !tbaa !3
  %53 = sext i32 %52 to i64
  %54 = getelementptr inbounds i64, ptr %51, i64 %53
  %55 = load i64, ptr %54, align 8, !tbaa !7
  %56 = load i32, ptr %6, align 4, !tbaa !3
  %57 = sext i32 %56 to i64
  %58 = getelementptr inbounds [5 x [3 x i64]], ptr @Kit_TruthSwapAdjacentVars_64bit.PMasks, i64 0, i64 %57
  %59 = getelementptr inbounds [3 x i64], ptr %58, i64 0, i64 2
  %60 = load i64, ptr %59, align 8, !tbaa !7
  %61 = and i64 %55, %60
  %62 = load i32, ptr %9, align 4, !tbaa !3
  %63 = zext i32 %62 to i64
  %64 = lshr i64 %61, %63
  %65 = or i64 %50, %64
  %66 = load ptr, ptr %4, align 8, !tbaa !9
  %67 = load i32, ptr %7, align 4, !tbaa !3
  %68 = sext i32 %67 to i64
  %69 = getelementptr inbounds i64, ptr %66, i64 %68
  store i64 %65, ptr %69, align 8, !tbaa !7
  br label %70

70:                                               ; preds = %24
  %71 = load i32, ptr %7, align 4, !tbaa !3
  %72 = add nsw i32 %71, 1
  store i32 %72, ptr %7, align 4, !tbaa !3
  br label %20, !llvm.loop !22

73:                                               ; preds = %20
  br label %176

74:                                               ; preds = %3
  %75 = load i32, ptr %6, align 4, !tbaa !3
  %76 = icmp sgt i32 %75, 5
  br i1 %76, label %77, label %128

77:                                               ; preds = %74
  %78 = load i32, ptr %6, align 4, !tbaa !3
  %79 = sub nsw i32 %78, 6
  %80 = shl i32 1, %79
  store i32 %80, ptr %8, align 4, !tbaa !3
  %81 = load i32, ptr %8, align 4, !tbaa !3
  %82 = sext i32 %81 to i64
  %83 = mul i64 8, %82
  %84 = trunc i64 %83 to i32
  store i32 %84, ptr %10, align 4, !tbaa !3
  %85 = load i32, ptr %8, align 4, !tbaa !3
  %86 = mul nsw i32 2, %85
  %87 = load ptr, ptr %4, align 8, !tbaa !9
  %88 = sext i32 %86 to i64
  %89 = getelementptr inbounds i64, ptr %87, i64 %88
  store ptr %89, ptr %4, align 8, !tbaa !9
  %90 = load i32, ptr %8, align 4, !tbaa !3
  %91 = mul nsw i32 2, %90
  store i32 %91, ptr %7, align 4, !tbaa !3
  br label %92

92:                                               ; preds = %122, %77
  %93 = load i32, ptr %7, align 4, !tbaa !3
  %94 = load i32, ptr %12, align 4, !tbaa !3
  %95 = icmp slt i32 %93, %94
  br i1 %95, label %96, label %127

96:                                               ; preds = %92
  %97 = getelementptr inbounds [256 x i64], ptr %11, i64 0, i64 0
  %98 = load ptr, ptr %4, align 8, !tbaa !9
  %99 = load i32, ptr %8, align 4, !tbaa !3
  %100 = sext i32 %99 to i64
  %101 = sub i64 0, %100
  %102 = getelementptr inbounds i64, ptr %98, i64 %101
  %103 = load i32, ptr %10, align 4, !tbaa !3
  %104 = sext i32 %103 to i64
  call void @llvm.memcpy.p0.p0.i64(ptr align 16 %97, ptr align 8 %102, i64 %104, i1 false)
  %105 = load ptr, ptr %4, align 8, !tbaa !9
  %106 = load i32, ptr %8, align 4, !tbaa !3
  %107 = sext i32 %106 to i64
  %108 = sub i64 0, %107
  %109 = getelementptr inbounds i64, ptr %105, i64 %108
  %110 = load ptr, ptr %4, align 8, !tbaa !9
  %111 = load i32, ptr %10, align 4, !tbaa !3
  %112 = sext i32 %111 to i64
  call void @llvm.memcpy.p0.p0.i64(ptr align 8 %109, ptr align 8 %110, i64 %112, i1 false)
  %113 = load ptr, ptr %4, align 8, !tbaa !9
  %114 = getelementptr inbounds [256 x i64], ptr %11, i64 0, i64 0
  %115 = load i32, ptr %10, align 4, !tbaa !3
  %116 = sext i32 %115 to i64
  call void @llvm.memcpy.p0.p0.i64(ptr align 8 %113, ptr align 16 %114, i64 %116, i1 false)
  %117 = load i32, ptr %8, align 4, !tbaa !3
  %118 = mul nsw i32 4, %117
  %119 = load ptr, ptr %4, align 8, !tbaa !9
  %120 = sext i32 %118 to i64
  %121 = getelementptr inbounds i64, ptr %119, i64 %120
  store ptr %121, ptr %4, align 8, !tbaa !9
  br label %122

122:                                              ; preds = %96
  %123 = load i32, ptr %8, align 4, !tbaa !3
  %124 = mul nsw i32 4, %123
  %125 = load i32, ptr %7, align 4, !tbaa !3
  %126 = add nsw i32 %125, %124
  store i32 %126, ptr %7, align 4, !tbaa !3
  br label %92, !llvm.loop !23

127:                                              ; preds = %92
  br label %175

128:                                              ; preds = %74
  store i32 0, ptr %7, align 4, !tbaa !3
  br label %129

129:                                              ; preds = %171, %128
  %130 = load i32, ptr %7, align 4, !tbaa !3
  %131 = load i32, ptr %12, align 4, !tbaa !3
  %132 = icmp slt i32 %130, %131
  br i1 %132, label %133, label %174

133:                                              ; preds = %129
  %134 = load ptr, ptr %4, align 8, !tbaa !9
  %135 = load i32, ptr %7, align 4, !tbaa !3
  %136 = add nsw i32 %135, 1
  %137 = sext i32 %136 to i64
  %138 = getelementptr inbounds i64, ptr %134, i64 %137
  %139 = load i64, ptr %138, align 8, !tbaa !7
  %140 = shl i64 %139, 32
  %141 = getelementptr inbounds [256 x i64], ptr %11, i64 0, i64 0
  store i64 %140, ptr %141, align 16, !tbaa !7
  %142 = getelementptr inbounds [256 x i64], ptr %11, i64 0, i64 0
  %143 = load i64, ptr %142, align 16, !tbaa !7
  %144 = load ptr, ptr %4, align 8, !tbaa !9
  %145 = load i32, ptr %7, align 4, !tbaa !3
  %146 = sext i32 %145 to i64
  %147 = getelementptr inbounds i64, ptr %144, i64 %146
  %148 = load i64, ptr %147, align 8, !tbaa !7
  %149 = xor i64 %143, %148
  %150 = lshr i64 %149, 32
  %151 = load ptr, ptr %4, align 8, !tbaa !9
  %152 = load i32, ptr %7, align 4, !tbaa !3
  %153 = add nsw i32 %152, 1
  %154 = sext i32 %153 to i64
  %155 = getelementptr inbounds i64, ptr %151, i64 %154
  %156 = load i64, ptr %155, align 8, !tbaa !7
  %157 = xor i64 %156, %150
  store i64 %157, ptr %155, align 8, !tbaa !7
  %158 = load ptr, ptr %4, align 8, !tbaa !9
  %159 = load i32, ptr %7, align 4, !tbaa !3
  %160 = sext i32 %159 to i64
  %161 = getelementptr inbounds i64, ptr %158, i64 %160
  %162 = load i64, ptr %161, align 8, !tbaa !7
  %163 = and i64 %162, 4294967295
  %164 = getelementptr inbounds [256 x i64], ptr %11, i64 0, i64 0
  %165 = load i64, ptr %164, align 16, !tbaa !7
  %166 = or i64 %163, %165
  %167 = load ptr, ptr %4, align 8, !tbaa !9
  %168 = load i32, ptr %7, align 4, !tbaa !3
  %169 = sext i32 %168 to i64
  %170 = getelementptr inbounds i64, ptr %167, i64 %169
  store i64 %166, ptr %170, align 8, !tbaa !7
  br label %171

171:                                              ; preds = %133
  %172 = load i32, ptr %7, align 4, !tbaa !3
  %173 = add nsw i32 %172, 2
  store i32 %173, ptr %7, align 4, !tbaa !3
  br label %129, !llvm.loop !24

174:                                              ; preds = %129
  br label %175

175:                                              ; preds = %174, %127
  br label %176

176:                                              ; preds = %175, %73
  call void @llvm.lifetime.end.p0(i64 4, ptr %12) #4
  call void @llvm.lifetime.end.p0(i64 2048, ptr %11) #4
  call void @llvm.lifetime.end.p0(i64 4, ptr %10) #4
  call void @llvm.lifetime.end.p0(i64 4, ptr %9) #4
  call void @llvm.lifetime.end.p0(i64 4, ptr %8) #4
  call void @llvm.lifetime.end.p0(i64 4, ptr %7) #4
  ret void
}