; Function Attrs: nofree norecurse nosync nounwind memory(argmem: readwrite) uwtable
define void @Kit_TruthSwapAdjacentVars_64bit(ptr noundef captures(none) %0, i32 noundef %1, i32 noundef %2) local_unnamed_addr #3 {
  %4 = alloca [256 x i64], align 16
  call void @llvm.lifetime.start.p0(i64 2048, ptr nonnull %4)
  %5 = icmp slt i32 %1, 7
  %6 = add nsw i32 %1, -6
  %7 = shl nuw i32 1, %6
  %8 = select i1 %5, i32 1, i32 %7
  %9 = icmp slt i32 %2, 5
  br i1 %9, label %10, label %31

10:                                               ; preds = %3
  %11 = icmp sgt i32 %8, 0
  br i1 %11, label %.lr.ph64, label %.loopexit

.lr.ph64:                                         ; preds = %10
  %12 = shl nuw nsw i32 1, %2
  %13 = sext i32 %2 to i64
  %14 = getelementptr inbounds [5 x [3 x i64]], ptr @Kit_TruthSwapAdjacentVars_64bit.PMasks, i64 0, i64 %13
  %15 = load i64, ptr %14, align 8, !tbaa !3
  %16 = getelementptr inbounds nuw i8, ptr %14, i64 8
  %17 = load i64, ptr %16, align 8, !tbaa !3
  %18 = zext nneg i32 %12 to i64
  %19 = getelementptr inbounds nuw i8, ptr %14, i64 16
  %20 = load i64, ptr %19, align 8, !tbaa !3
  %wide.trip.count = zext nneg i32 %8 to i64
  br label %21

21:                                               ; preds = %.lr.ph64, %21
  %indvars.iv68 = phi i64 [ 0, %.lr.ph64 ], [ %indvars.iv.next69, %21 ]
  %22 = getelementptr inbounds nuw i64, ptr %0, i64 %indvars.iv68
  %23 = load i64, ptr %22, align 8, !tbaa !3
  %24 = and i64 %15, %23
  %25 = and i64 %17, %23
  %26 = shl i64 %25, %18
  %27 = or i64 %26, %24
  %28 = and i64 %20, %23
  %29 = lshr i64 %28, %18
  %30 = or i64 %27, %29
  store i64 %30, ptr %22, align 8, !tbaa !3
  %indvars.iv.next69 = add nuw nsw i64 %indvars.iv68, 1
  %exitcond.not = icmp eq i64 %indvars.iv.next69, %wide.trip.count
  br i1 %exitcond.not, label %.loopexit, label %21, !llvm.loop !17

31:                                               ; preds = %3
  %.not = icmp eq i32 %2, 5
  br i1 %.not, label %.preheader, label %34

.preheader:                                       ; preds = %31
  %32 = icmp sgt i32 %8, 0
  br i1 %32, label %.lr.ph62.preheader, label %.loopexit

.lr.ph62.preheader:                               ; preds = %.preheader
  %33 = zext nneg i32 %8 to i64
  br label %.lr.ph62

34:                                               ; preds = %31
  %35 = add nsw i32 %2, -6
  %36 = shl i32 2, %35
  %37 = icmp slt i32 %36, %8
  br i1 %37, label %.lr.ph, label %.loopexit

.lr.ph:                                           ; preds = %34
  %38 = sext i32 %36 to i64
  %39 = getelementptr inbounds i64, ptr %0, i64 %38
  %40 = shl i32 8, %35
  %41 = shl nuw i32 1, %35
  %42 = sext i32 %41 to i64
  %43 = sub nsw i64 0, %42
  %44 = sext i32 %40 to i64
  %45 = shl i32 4, %35
  %46 = sext i32 %45 to i64
  br label %47

47:                                               ; preds = %.lr.ph, %47
  %.060 = phi ptr [ %39, %.lr.ph ], [ %49, %47 ]
  %.159 = phi i32 [ %36, %.lr.ph ], [ %50, %47 ]
  %48 = getelementptr inbounds i64, ptr %.060, i64 %43
  call void @llvm.memcpy.p0.p0.i64(ptr nonnull align 16 %4, ptr nonnull align 8 %48, i64 %44, i1 false)
  tail call void @llvm.memcpy.p0.p0.i64(ptr nonnull align 8 %48, ptr align 8 %.060, i64 %44, i1 false)
  call void @llvm.memcpy.p0.p0.i64(ptr align 8 %.060, ptr nonnull align 16 %4, i64 %44, i1 false)
  %49 = getelementptr inbounds i64, ptr %.060, i64 %46
  %50 = add nsw i32 %.159, %45
  %51 = icmp slt i32 %50, %8
  br i1 %51, label %47, label %.loopexit, !llvm.loop !18

.lr.ph62:                                         ; preds = %.lr.ph62.preheader, %.lr.ph62
  %indvars.iv = phi i64 [ 0, %.lr.ph62.preheader ], [ %indvars.iv.next, %.lr.ph62 ]
  %52 = or disjoint i64 %indvars.iv, 1
  %53 = getelementptr inbounds nuw i64, ptr %0, i64 %52
  %54 = load i64, ptr %53, align 8, !tbaa !3
  %55 = shl i64 %54, 32
  %56 = getelementptr inbounds nuw i64, ptr %0, i64 %indvars.iv
  %57 = load i64, ptr %56, align 8, !tbaa !3
  %58 = xor i64 %57, %55
  %59 = lshr i64 %58, 32
  %60 = xor i64 %59, %54
  store i64 %60, ptr %53, align 8, !tbaa !3
  %61 = and i64 %57, 4294967295
  %62 = or disjoint i64 %61, %55
  store i64 %62, ptr %56, align 8, !tbaa !3
  %indvars.iv.next = add nuw nsw i64 %indvars.iv, 2
  %63 = icmp samesign ult i64 %indvars.iv.next, %33
  br i1 %63, label %.lr.ph62, label %.loopexit, !llvm.loop !19

.loopexit:                                        ; preds = %47, %.lr.ph62, %21, %.preheader, %34, %10
  call void @llvm.lifetime.end.p0(i64 2048, ptr nonnull %4)
  ret void
}